target datalayout = "e-m:e-p270:32:32-p271:32:32-p272:64:64-i64:64-i128:128-f80:128-n8:16:32:64-S128"
target triple = "x86_64-pc-linux-gnu"

%struct._value_string_ext = type { ptr, i32, i32, ptr, ptr }

@hf_h224_command_code = internal global i32 0, align 4
@hf_h224_message_reserved_b7b4 = internal global i32 0, align 4
@hf_h224_message_timeout = internal global i32 0, align 4
@ett_h224 = internal global i32 0, align 4
@h224_client_data_ext = internal global %struct._value_string_ext { ptr @_try_val_to_str_ext_init, i32 0, i32 4, ptr @h224_client_data_type, ptr @.str.132 }, align 8
@.str.131 = private unnamed_addr constant [14 x i8] c"Unknown field\00", align 1
@.str.138 = private unnamed_addr constant [21 x i8] c"%u (%u milliseconds)\00", align 1
@dissect_h224_fecc_client_data.fecc_message_m1m0 = internal constant [5 x ptr] [ptr @hf_h224_vs_id, ptr @hf_h224_message_reserved_b3b2, ptr @hf_h224_message_vs_m1, ptr @hf_h224_message_vs_m0, ptr null], align 16
@dissect_h224_fecc_client_data.fecc_message_preset_num = internal constant [3 x ptr] [ptr @hf_h224_message_preset_number, ptr @hf_h224_message_reserved_b3b0, ptr null], align 16

; Function Attrs: null_pointer_is_valid sspstrong uwtable
define internal i32 @dissect_h224_fecc_client_data(ptr noundef %0, ptr noundef %1, i32 noundef %2) #0 {
  %4 = alloca ptr, align 8
  %5 = alloca ptr, align 8
  %6 = alloca i32, align 4
  %7 = alloca i8, align 1
  %8 = alloca ptr, align 8
  %9 = alloca i16, align 2
  store ptr %0, ptr %4, align 8
  store ptr %1, ptr %5, align 8
  store i32 %2, ptr %6, align 4
  call void @llvm.lifetime.start.p0(i64 1, ptr %7) #3
  call void @llvm.lifetime.start.p0(i64 8, ptr %8) #3
  %10 = load ptr, ptr %5, align 8
  %11 = load ptr, ptr %4, align 8
  %12 = load i32, ptr %6, align 4
  %13 = load i32, ptr @ett_h224, align 4
  %14 = call ptr @val_to_str_ext_const(i32 noundef 1, ptr noundef @h224_client_data_ext, ptr noundef @.str.131)
  %15 = call ptr @proto_tree_add_subtree(ptr noundef %10, ptr noundef %11, i32 noundef %12, i32 noundef -1, i32 noundef %13, ptr noundef null, ptr noundef %14)
  store ptr %15, ptr %8, align 8
  %16 = load ptr, ptr %4, align 8
  %17 = load i32, ptr %6, align 4
  %18 = call zeroext i8 @tvb_get_uint8(ptr noundef %16, i32 noundef %17)
  store i8 %18, ptr %7, align 1
  %19 = load ptr, ptr %8, align 8
  %20 = load i32, ptr @hf_h224_command_code, align 4
  %21 = load ptr, ptr %4, align 8
  %22 = load i32, ptr %6, align 4
  %23 = call ptr @proto_tree_add_item(ptr noundef %19, i32 noundef %20, ptr noundef %21, i32 noundef %22, i32 noundef 1, i32 noundef 0)
  %24 = load i32, ptr %6, align 4
  %25 = add i32 %24, 1
  store i32 %25, ptr %6, align 4
  %26 = load i8, ptr %7, align 1
  %27 = zext i8 %26 to i32
  switch i32 %27, label %85 [
    i32 1, label %28
    i32 2, label %67
    i32 3, label %67
    i32 4, label %73
    i32 5, label %73
    i32 6, label %79
    i32 7, label %79
  ]

28:                                               ; preds = %3
  call void @llvm.lifetime.start.p0(i64 2, ptr %9) #3
  %29 = load ptr, ptr %8, align 8
  %30 = load ptr, ptr %4, align 8
  %31 = load i32, ptr %6, align 4
  call void @proto_tree_add_bitmask_list(ptr noundef %29, ptr noundef %30, i32 noundef %31, i32 noundef 1, ptr noundef @dissect_h224_fecc_client_data.fecc_message_action, i32 noundef 0)
  %32 = load i32, ptr %6, align 4
  %33 = add i32 %32, 1
  store i32 %33, ptr %6, align 4
  %34 = load ptr, ptr %8, align 8
  %35 = load i32, ptr @hf_h224_message_reserved_b7b4, align 4
  %36 = load ptr, ptr %4, align 8
  %37 = load i32, ptr %6, align 4
  %38 = call ptr @proto_tree_add_item(ptr noundef %34, i32 noundef %35, ptr noundef %36, i32 noundef %37, i32 noundef 1, i32 noundef 0)
  %39 = load ptr, ptr %4, align 8
  %40 = load i32, ptr %6, align 4
  %41 = call zeroext i8 @tvb_get_uint8(ptr noundef %39, i32 noundef %40)
  store i8 %41, ptr %7, align 1
  %42 = load i8, ptr %7, align 1
  %43 = zext i8 %42 to i32
  %44 = and i32 %43, 15
  %45 = icmp ne i32 %44, 0
  br i1 %45, label %46, label %50

46:                                               ; preds = %28
  %47 = load i8, ptr %7, align 1
  %48 = zext i8 %47 to i32
  %49 = mul i32 %48, 50
  br label %51

50:                                               ; preds = %28
  br label %51

51:                                               ; preds = %50, %46
  %52 = phi i32 [ %49, %46 ], [ 800, %50 ]
  %53 = trunc i32 %52 to i16
  store i16 %53, ptr %9, align 2
  %54 = load ptr, ptr %8, align 8
  %55 = load i32, ptr @hf_h224_message_timeout, align 4
  %56 = load ptr, ptr %4, align 8
  %57 = load i32, ptr %6, align 4
  %58 = load i8, ptr %7, align 1
  %59 = zext i8 %58 to i32
  %60 = load i8, ptr %7, align 1
  %61 = zext i8 %60 to i32
  %62 = load i16, ptr %9, align 2
  %63 = zext i16 %62 to i32
  %64 = call ptr (ptr, i32, ptr, i32, i32, i32, ptr, ...) @proto_tree_add_uint_format(ptr noundef %54, i32 noundef %55, ptr noundef %56, i32 noundef %57, i32 noundef 1, i32 noundef %59, ptr noundef @.str.138, i32 noundef %61, i32 noundef %63)
  %65 = load i32, ptr %6, align 4
  %66 = add i32 %65, 1
  store i32 %66, ptr %6, align 4
  call void @llvm.lifetime.end.p0(i64 2, ptr %9) #3
  br label %86

67:                                               ; preds = %3, %3
  %68 = load ptr, ptr %8, align 8
  %69 = load ptr, ptr %4, align 8
  %70 = load i32, ptr %6, align 4
  call void @proto_tree_add_bitmask_list(ptr noundef %68, ptr noundef %69, i32 noundef %70, i32 noundef 1, ptr noundef @dissect_h224_fecc_client_data.fecc_message_action, i32 noundef 0)
  %71 = load i32, ptr %6, align 4
  %72 = add i32 %71, 1
  store i32 %72, ptr %6, align 4
  br label %86

73:                                               ; preds = %3, %3
  %74 = load ptr, ptr %8, align 8
  %75 = load ptr, ptr %4, align 8
  %76 = load i32, ptr %6, align 4
  call void @proto_tree_add_bitmask_list(ptr noundef %74, ptr noundef %75, i32 noundef %76, i32 noundef 1, ptr noundef @dissect_h224_fecc_client_data.fecc_message_m1m0, i32 noundef 0)
  %77 = load i32, ptr %6, align 4
  %78 = add i32 %77, 1
  store i32 %78, ptr %6, align 4
  br label %86

79:                                               ; preds = %3, %3
  %80 = load ptr, ptr %8, align 8
  %81 = load ptr, ptr %4, align 8
  %82 = load i32, ptr %6, align 4
  call void @proto_tree_add_bitmask_list(ptr noundef %80, ptr noundef %81, i32 noundef %82, i32 noundef 1, ptr noundef @dissect_h224_fecc_client_data.fecc_message_preset_num, i32 noundef 0)
  %83 = load i32, ptr %6, align 4
  %84 = add i32 %83, 1
  store i32 %84, ptr %6, align 4
  br label %86

85:                                               ; preds = %3
  br label %86

86:                                               ; preds = %85, %79, %73, %67, %51
  %87 = load i32, ptr %6, align 4
  call void @llvm.lifetime.end.p0(i64 8, ptr %8) #3
  call void @llvm.lifetime.end.p0(i64 1, ptr %7) #3
  ret i32 %87
}