; Function Attrs: null_pointer_is_valid sspstrong uwtable
define internal noundef i32 @dissect_h224_fecc_client_data(ptr noundef %0, ptr noundef %1, i32 noundef %2) #0 {
  %4 = load i32, ptr @ett_h224, align 4
  %5 = tail call ptr @val_to_str_ext_const(i32 noundef 1, ptr noundef nonnull @h224_client_data_ext, ptr noundef nonnull @.str.131)
  %6 = tail call ptr @proto_tree_add_subtree(ptr noundef %1, ptr noundef %0, i32 noundef %2, i32 noundef -1, i32 noundef %4, ptr noundef null, ptr noundef %5)
  %7 = tail call zeroext i8 @tvb_get_uint8(ptr noundef %0, i32 noundef %2)
  %8 = load i32, ptr @hf_h224_command_code, align 4
  %9 = tail call ptr @proto_tree_add_item(ptr noundef %6, i32 noundef %8, ptr noundef %0, i32 noundef %2, i32 noundef 1, i32 noundef 0)
  %10 = add i32 %2, 1
  switch i8 %7, label %29 [
    i8 1, label %11
    i8 2, label %23
    i8 3, label %23
    i8 4, label %25
    i8 5, label %25
    i8 6, label %27
    i8 7, label %27
  ]

11:                                               ; preds = %3
  tail call void @proto_tree_add_bitmask_list(ptr noundef %6, ptr noundef %0, i32 noundef %10, i32 noundef 1, ptr noundef nonnull @dissect_h224_fecc_client_data.fecc_message_action, i32 noundef 0)
  %12 = add i32 %2, 2
  %13 = load i32, ptr @hf_h224_message_reserved_b7b4, align 4
  %14 = tail call ptr @proto_tree_add_item(ptr noundef %6, i32 noundef %13, ptr noundef %0, i32 noundef %12, i32 noundef 1, i32 noundef 0)
  %15 = tail call zeroext i8 @tvb_get_uint8(ptr noundef %0, i32 noundef %12)
  %16 = zext i8 %15 to i32
  %17 = and i32 %16, 15
  %.not = icmp eq i32 %17, 0
  %18 = mul nuw nsw i32 %16, 50
  %19 = load i32, ptr @hf_h224_message_timeout, align 4
  %20 = select i1 %.not, i32 800, i32 %18
  %21 = tail call ptr (ptr, i32, ptr, i32, i32, i32, ptr, ...) @proto_tree_add_uint_format(ptr noundef %6, i32 noundef %19, ptr noundef %0, i32 noundef %12, i32 noundef 1, i32 noundef %16, ptr noundef nonnull @.str.138, i32 noundef %16, i32 noundef %20)
  %22 = add i32 %2, 3
  br label %29

23:                                               ; preds = %3, %3
  tail call void @proto_tree_add_bitmask_list(ptr noundef %6, ptr noundef %0, i32 noundef %10, i32 noundef 1, ptr noundef nonnull @dissect_h224_fecc_client_data.fecc_message_action, i32 noundef 0)
  %24 = add i32 %2, 2
  br label %29

25:                                               ; preds = %3, %3
  tail call void @proto_tree_add_bitmask_list(ptr noundef %6, ptr noundef %0, i32 noundef %10, i32 noundef 1, ptr noundef nonnull @dissect_h224_fecc_client_data.fecc_message_m1m0, i32 noundef 0)
  %26 = add i32 %2, 2
  br label %29

27:                                               ; preds = %3, %3
  tail call void @proto_tree_add_bitmask_list(ptr noundef %6, ptr noundef %0, i32 noundef %10, i32 noundef 1, ptr noundef nonnull @dissect_h224_fecc_client_data.fecc_message_preset_num, i32 noundef 0)
  %28 = add i32 %2, 2
  br label %29

29:                                               ; preds = %3, %27, %25, %23, %11
  %.0 = phi i32 [ %10, %3 ], [ %28, %27 ], [ %26, %25 ], [ %24, %23 ], [ %22, %11 ]
  ret i32 %.0
}